; Function Attrs: mustprogress nofree norecurse nosync nounwind willreturn memory(read, inaccessiblemem: none) uwtable
define noundef ptr @_ZNK13sentencepiece7unigram7Lattice8eos_nodeEv(ptr noundef nonnull readonly align 8 captures(none) dereferenceable(152) %0) local_unnamed_addr #8 align 2 {
  %2 = getelementptr inbounds nuw i8, ptr %0, i64 48
  %3 = getelementptr inbounds nuw i8, ptr %0, i64 24
  %4 = getelementptr inbounds nuw i8, ptr %0, i64 32
  %5 = load ptr, ptr %4, align 8, !tbaa !33
  %6 = load ptr, ptr %3, align 8, !tbaa !29
  %7 = ptrtoint ptr %5 to i64
  %8 = ptrtoint ptr %6 to i64
  %9 = sub i64 %7, %8
  %10 = lshr exact i64 %9, 3
  %11 = trunc i64 %10 to i32
  %12 = add i32 %11, -1
  %.sroa.speculated.i = tail call noundef range(i32 0, -2147483648) i32 @llvm.smax.i32(i32 %12, i32 0)
  %13 = zext nneg i32 %.sroa.speculated.i to i64
  %14 = load ptr, ptr %2, align 8, !tbaa !17
  %15 = getelementptr inbounds nuw %"class.std::vector.5", ptr %14, i64 %13
  %16 = load ptr, ptr %15, align 8, !tbaa !21
  %17 = load ptr, ptr %16, align 8, !tbaa !27
  ret ptr %17
}